target datalayout = "e-m:e-p270:32:32-p271:32:32-p272:64:64-i64:64-i128:128-f80:128-n8:16:32:64-S128"
target triple = "x86_64-pc-linux-gnu"

%struct.st_hash_type = type { ptr, ptr }
%struct.RHash = type { %struct.RBasic, i64 }
%struct.RBasic = type { i64, i64 }
%struct.st_table = type { i8, i8, i8, i32, ptr, i64, ptr, i64, i64, ptr }

@.str = private unnamed_addr constant [10 x i8] c"../hash.c\00", align 1
@rb_cHash = dso_local global i64 0, align 8
@objhash = internal constant %struct.st_hash_type { ptr @rb_any_cmp, ptr @rb_any_hash }, align 8
@ruby_current_ec = external thread_local global ptr, align 8

; Function Attrs: inlinehint nounwind sspstrong willreturn memory(none) uwtable
define internal zeroext i1 @RB_IMMEDIATE_P(i64 noundef %0) #5 {
  %2 = alloca i64, align 8
  store i64 %0, ptr %2, align 8, !tbaa !7
  %3 = load i64, ptr %2, align 8, !tbaa !7
  %4 = and i64 %3, 7
  %5 = icmp ne i64 %4, 0
  ret i1 %5
}

; Function Attrs: inlinehint nounwind sspstrong willreturn memory(none) uwtable
define internal zeroext i1 @RB_SPECIAL_CONST_P(i64 noundef %0) #5 {
  %2 = alloca i64, align 8
  store i64 %0, ptr %2, align 8, !tbaa !7
  %3 = load i64, ptr %2, align 8, !tbaa !7
  %4 = icmp eq i64 %3, 0
  br i1 %4, label %8, label %5

5:                                                ; preds = %1
  %6 = load i64, ptr %2, align 8, !tbaa !7
  %7 = call zeroext i1 @RB_IMMEDIATE_P(i64 noundef %6) #27
  br label %8

8:                                                ; preds = %5, %1
  %9 = phi i1 [ true, %1 ], [ %7, %5 ]
  ret i1 %9
}

; Function Attrs: inlinehint nounwind sspstrong uwtable
define internal i64 @rb_obj_written(i64 noundef %0, i64 noundef %1, i64 noundef %2, ptr noundef %3, i32 noundef %4) #2 {
  %6 = alloca i64, align 8
  %7 = alloca i64, align 8
  %8 = alloca i64, align 8
  %9 = alloca ptr, align 8
  %10 = alloca i32, align 4
  store i64 %0, ptr %6, align 8, !tbaa !7
  store i64 %1, ptr %7, align 8, !tbaa !7
  store i64 %2, ptr %8, align 8, !tbaa !7
  store ptr %3, ptr %9, align 8, !tbaa !14
  store i32 %4, ptr %10, align 4, !tbaa !16
  %11 = load i64, ptr %8, align 8, !tbaa !7
  %12 = call zeroext i1 @RB_SPECIAL_CONST_P(i64 noundef %11) #27
  br i1 %12, label %16, label %13

13:                                               ; preds = %5
  %14 = load i64, ptr %6, align 8, !tbaa !7
  %15 = load i64, ptr %8, align 8, !tbaa !7
  call void @rb_gc_writebarrier(i64 noundef %14, i64 noundef %15)
  br label %16

16:                                               ; preds = %13, %5
  %17 = load i64, ptr %6, align 8, !tbaa !7
  ret i64 %17
}

; Function Attrs: inlinehint nounwind sspstrong memory(argmem: readwrite, inaccessiblemem: readwrite) uwtable
define internal void @rbimpl_fl_set_raw_raw(ptr noundef %0, i64 noundef %1) #17 {
  %3 = alloca ptr, align 8
  %4 = alloca i64, align 8
  store ptr %0, ptr %3, align 8, !tbaa !155
  store i64 %1, ptr %4, align 8, !tbaa !7
  %5 = load i64, ptr %4, align 8, !tbaa !7
  %6 = load ptr, ptr %3, align 8, !tbaa !155
  %7 = getelementptr inbounds nuw %struct.RBasic, ptr %6, i32 0, i32 0
  %8 = load i64, ptr %7, align 8, !tbaa !64
  %9 = or i64 %8, %5
  store i64 %9, ptr %7, align 8, !tbaa !64
  ret void
}

; Function Attrs: inlinehint nounwind sspstrong uwtable
define internal i64 @rb_obj_write(i64 noundef %0, ptr noundef %1, i64 noundef %2, ptr noundef %3, i32 noundef %4) #2 {
  %6 = alloca i64, align 8
  %7 = alloca ptr, align 8
  %8 = alloca i64, align 8
  %9 = alloca ptr, align 8
  %10 = alloca i32, align 4
  store i64 %0, ptr %6, align 8, !tbaa !7
  store ptr %1, ptr %7, align 8, !tbaa !11
  store i64 %2, ptr %8, align 8, !tbaa !7
  store ptr %3, ptr %9, align 8, !tbaa !14
  store i32 %4, ptr %10, align 4, !tbaa !16
  %11 = load i64, ptr %8, align 8, !tbaa !7
  %12 = load ptr, ptr %7, align 8, !tbaa !11
  store i64 %11, ptr %12, align 8, !tbaa !7
  %13 = load i64, ptr %6, align 8, !tbaa !7
  %14 = load i64, ptr %8, align 8, !tbaa !7
  %15 = load ptr, ptr %9, align 8, !tbaa !14
  %16 = load i32, ptr %10, align 4, !tbaa !16
  %17 = call i64 @rb_obj_written(i64 noundef %13, i64 noundef 36, i64 noundef %14, ptr noundef %15, i32 noundef %16)
  %18 = load i64, ptr %6, align 8, !tbaa !7
  ret i64 %18
}

; Function Attrs: inlinehint nounwind sspstrong uwtable
define internal void @RB_FL_SET_RAW(i64 noundef %0, i64 noundef %1) #2 {
  %3 = alloca i64, align 8
  %4 = alloca i64, align 8
  store i64 %0, ptr %3, align 8, !tbaa !7
  store i64 %1, ptr %4, align 8, !tbaa !7
  %5 = load i64, ptr %3, align 8, !tbaa !7
  %6 = inttoptr i64 %5 to ptr
  %7 = load i64, ptr %4, align 8, !tbaa !7
  call void @rbimpl_fl_set_raw_raw(ptr noundef %6, i64 noundef %7) #29
  ret void
}

; Function Attrs: nounwind sspstrong uwtable
define dso_local i64 @rb_hash_set_ifnone(i64 noundef %0, i64 noundef %1) #0 {
  %3 = alloca i64, align 8
  %4 = alloca i64, align 8
  store i64 %0, ptr %3, align 8, !tbaa !7
  store i64 %1, ptr %4, align 8, !tbaa !7
  %5 = load i64, ptr %3, align 8, !tbaa !7
  %6 = load i64, ptr %3, align 8, !tbaa !7
  %7 = inttoptr i64 %6 to ptr
  %8 = getelementptr inbounds nuw %struct.RHash, ptr %7, i32 0, i32 1
  %9 = load i64, ptr %4, align 8, !tbaa !7
  %10 = call i64 @rb_obj_write(i64 noundef %5, ptr noundef %8, i64 noundef %9, ptr noundef @.str, i32 noundef 125)
  %11 = load i64, ptr %3, align 8, !tbaa !7
  ret i64 %11
}

; Function Attrs: inlinehint nounwind sspstrong uwtable
define internal ptr @rb_current_execution_context(i1 noundef zeroext %0) #2 {
  %2 = alloca i8, align 1
  %3 = alloca ptr, align 8
  %4 = zext i1 %0 to i8
  store i8 %4, ptr %2, align 1, !tbaa !58
  call void @llvm.lifetime.start.p0(i64 8, ptr %3) #28
  %5 = call align 8 ptr @llvm.threadlocal.address.p0(ptr align 8 @ruby_current_ec)
  %6 = load ptr, ptr %5, align 8, !tbaa !151
  store ptr %6, ptr %3, align 8, !tbaa !151
  %7 = load ptr, ptr %3, align 8, !tbaa !151
  call void @llvm.lifetime.end.p0(i64 8, ptr %3) #28
  ret ptr %7
}

; Function Attrs: inlinehint nounwind sspstrong uwtable
define internal nonnull ptr @RHASH_ST_TABLE(i64 noundef %0) #2 {
  %2 = alloca i64, align 8
  store i64 %0, ptr %2, align 8, !tbaa !7
  %3 = load i64, ptr %2, align 8, !tbaa !7
  %4 = add i64 %3, 24
  %5 = inttoptr i64 %4 to ptr
  ret ptr %5
}

; Function Attrs: inlinehint nounwind sspstrong willreturn memory(read) uwtable
define internal i64 @RB_FL_TEST_RAW(i64 noundef %0, i64 noundef %1) #4 {
  %3 = alloca i64, align 8
  %4 = alloca i64, align 8
  store i64 %0, ptr %3, align 8, !tbaa !7
  store i64 %1, ptr %4, align 8, !tbaa !7
  %5 = load i64, ptr %3, align 8, !tbaa !7
  %6 = inttoptr i64 %5 to ptr
  %7 = getelementptr inbounds nuw %struct.RBasic, ptr %6, i32 0, i32 0
  %8 = load i64, ptr %7, align 8, !tbaa !64
  %9 = load i64, ptr %4, align 8, !tbaa !7
  %10 = and i64 %8, %9
  ret i64 %10
}

; Function Attrs: nounwind sspstrong uwtable
define internal void @hash_st_table_init(i64 noundef %0, ptr noundef %1, i64 noundef %2) #0 {
  %4 = alloca i64, align 8
  %5 = alloca ptr, align 8
  %6 = alloca i64, align 8
  store i64 %0, ptr %4, align 8, !tbaa !7
  store ptr %1, ptr %5, align 8, !tbaa !38
  store i64 %2, ptr %6, align 8, !tbaa !7
  %7 = load i64, ptr %4, align 8, !tbaa !7
  %8 = call nonnull ptr @RHASH_ST_TABLE(i64 noundef %7)
  %9 = load ptr, ptr %5, align 8, !tbaa !38
  %10 = load i64, ptr %6, align 8, !tbaa !7
  %11 = call ptr @rb_st_init_existing_table_with_size(ptr noundef %8, ptr noundef %9, i64 noundef %10)
  %12 = load i64, ptr %4, align 8, !tbaa !7
  call void @RB_FL_SET_RAW(i64 noundef %12, i64 noundef 32768)
  ret void
}

; Function Attrs: nounwind sspstrong uwtable
define internal i64 @hash_alloc_flags(i64 noundef %0, i64 noundef %1, i64 noundef %2, i1 noundef zeroext %3) #0 {
  %5 = alloca i64, align 8
  %6 = alloca i64, align 8
  %7 = alloca i64, align 8
  %8 = alloca i8, align 1
  %9 = alloca i64, align 8
  %10 = alloca i64, align 8
  %11 = alloca ptr, align 8
  store i64 %0, ptr %5, align 8, !tbaa !7
  store i64 %1, ptr %6, align 8, !tbaa !7
  store i64 %2, ptr %7, align 8, !tbaa !7
  %12 = zext i1 %3 to i8
  store i8 %12, ptr %8, align 1, !tbaa !58
  call void @llvm.lifetime.start.p0(i64 8, ptr %9) #28
  store i64 32, ptr %9, align 8, !tbaa !7
  call void @llvm.lifetime.start.p0(i64 8, ptr %10) #28
  %13 = load i8, ptr %8, align 1, !tbaa !58, !range !60, !noundef !61
  %14 = trunc i8 %13 to i1
  %15 = select i1 %14, i64 56, i64 136
  %16 = add i64 24, %15
  store i64 %16, ptr %10, align 8, !tbaa !7
  call void @llvm.lifetime.start.p0(i64 8, ptr %11) #28
  %17 = load i64, ptr %6, align 8, !tbaa !7
  %18 = or i64 40, %17
  %19 = and i64 %18, 32
  %20 = icmp ne i64 %19, 0
  br i1 %20, label %21, label %29

21:                                               ; preds = %4
  %22 = call ptr @rb_current_execution_context(i1 noundef zeroext true)
  %23 = load i64, ptr %5, align 8, !tbaa !7
  %24 = load i64, ptr %6, align 8, !tbaa !7
  %25 = or i64 40, %24
  %26 = and i64 %25, -33
  %27 = load i64, ptr %10, align 8, !tbaa !7
  %28 = call i64 @rb_wb_protected_newobj_of(ptr noundef %22, i64 noundef %23, i64 noundef %26, i64 noundef %27)
  br label %35

29:                                               ; preds = %4
  %30 = load i64, ptr %5, align 8, !tbaa !7
  %31 = load i64, ptr %6, align 8, !tbaa !7
  %32 = or i64 40, %31
  %33 = load i64, ptr %10, align 8, !tbaa !7
  %34 = call i64 @rb_wb_unprotected_newobj_of(i64 noundef %30, i64 noundef %32, i64 noundef %33)
  br label %35

35:                                               ; preds = %29, %21
  %36 = phi i64 [ %28, %21 ], [ %34, %29 ]
  %37 = inttoptr i64 %36 to ptr
  store ptr %37, ptr %11, align 8, !tbaa !62
  %38 = load ptr, ptr %11, align 8, !tbaa !62
  %39 = ptrtoint ptr %38 to i64
  %40 = load i64, ptr %7, align 8, !tbaa !7
  %41 = call i64 @rb_hash_set_ifnone(i64 noundef %39, i64 noundef %40)
  %42 = load ptr, ptr %11, align 8, !tbaa !62
  %43 = ptrtoint ptr %42 to i64
  call void @llvm.lifetime.end.p0(i64 8, ptr %11) #28
  call void @llvm.lifetime.end.p0(i64 8, ptr %10) #28
  call void @llvm.lifetime.end.p0(i64 8, ptr %9) #28
  ret i64 %43
}

; Function Attrs: inlinehint nounwind sspstrong uwtable
define internal i64 @RHASH_ST_SIZE(i64 noundef %0) #2 {
  %2 = alloca i64, align 8
  store i64 %0, ptr %2, align 8, !tbaa !7
  %3 = load i64, ptr %2, align 8, !tbaa !7
  %4 = call nonnull ptr @RHASH_ST_TABLE(i64 noundef %3)
  %5 = getelementptr inbounds nuw %struct.st_table, ptr %4, i32 0, i32 5
  %6 = load i64, ptr %5, align 8, !tbaa !74
  ret i64 %6
}

; Function Attrs: inlinehint nounwind sspstrong uwtable
define internal i32 @RHASH_AR_TABLE_SIZE_RAW(i64 noundef %0) #2 {
  %2 = alloca i64, align 8
  %3 = alloca i64, align 8
  store i64 %0, ptr %2, align 8, !tbaa !7
  call void @llvm.lifetime.start.p0(i64 8, ptr %3) #28
  %4 = load i64, ptr %2, align 8, !tbaa !7
  %5 = call i64 @RB_FL_TEST_RAW(i64 noundef %4, i64 noundef 983040) #26
  store i64 %5, ptr %3, align 8, !tbaa !7
  %6 = load i64, ptr %3, align 8, !tbaa !7
  %7 = lshr i64 %6, 16
  store i64 %7, ptr %3, align 8, !tbaa !7
  %8 = load i64, ptr %3, align 8, !tbaa !7
  %9 = trunc i64 %8 to i32
  call void @llvm.lifetime.end.p0(i64 8, ptr %3) #28
  ret i32 %9
}

; Function Attrs: inlinehint nounwind sspstrong uwtable
define internal zeroext i1 @RHASH_AR_TABLE_P(i64 noundef %0) #2 {
  %2 = alloca i64, align 8
  store i64 %0, ptr %2, align 8, !tbaa !7
  %3 = load i64, ptr %2, align 8, !tbaa !7
  %4 = call i64 @RB_FL_TEST_RAW(i64 noundef %3, i64 noundef 32768) #26
  %5 = icmp ne i64 %4, 0
  %6 = xor i1 %5, true
  ret i1 %6
}

; Function Attrs: nounwind sspstrong uwtable
define hidden i64 @rb_hash_new_with_size(i64 noundef %0) #0 {
  %2 = alloca i64, align 8
  %3 = alloca i8, align 1
  %4 = alloca i64, align 8
  store i64 %0, ptr %2, align 8, !tbaa !7
  call void @llvm.lifetime.start.p0(i64 1, ptr %3) #28
  %5 = load i64, ptr %2, align 8, !tbaa !7
  %6 = icmp ugt i64 %5, 8
  %7 = zext i1 %6 to i8
  store i8 %7, ptr %3, align 1, !tbaa !58
  call void @llvm.lifetime.start.p0(i64 8, ptr %4) #28
  %8 = load i64, ptr @rb_cHash, align 8, !tbaa !7
  %9 = load i8, ptr %3, align 1, !tbaa !58, !range !60, !noundef !61
  %10 = trunc i8 %9 to i1
  %11 = call i64 @hash_alloc_flags(i64 noundef %8, i64 noundef 0, i64 noundef 4, i1 noundef zeroext %10)
  store i64 %11, ptr %4, align 8, !tbaa !7
  %12 = load i8, ptr %3, align 1, !tbaa !58, !range !60, !noundef !61
  %13 = trunc i8 %12 to i1
  br i1 %13, label %14, label %17

14:                                               ; preds = %1
  %15 = load i64, ptr %4, align 8, !tbaa !7
  %16 = load i64, ptr %2, align 8, !tbaa !7
  call void @hash_st_table_init(i64 noundef %15, ptr noundef @objhash, i64 noundef %16)
  br label %17

17:                                               ; preds = %14, %1
  %18 = load i64, ptr %4, align 8, !tbaa !7
  call void @llvm.lifetime.end.p0(i64 8, ptr %4) #28
  call void @llvm.lifetime.end.p0(i64 1, ptr %3) #28
  ret i64 %18
}

; Function Attrs: inlinehint nounwind sspstrong uwtable
define internal i64 @RHASH_SIZE(i64 noundef %0) #2 {
  %2 = alloca i64, align 8
  %3 = alloca i64, align 8
  store i64 %0, ptr %3, align 8, !tbaa !7
  %4 = load i64, ptr %3, align 8, !tbaa !7
  %5 = call zeroext i1 @RHASH_AR_TABLE_P(i64 noundef %4)
  br i1 %5, label %6, label %10

6:                                                ; preds = %1
  %7 = load i64, ptr %3, align 8, !tbaa !7
  %8 = call i32 @RHASH_AR_TABLE_SIZE_RAW(i64 noundef %7)
  %9 = zext i32 %8 to i64
  store i64 %9, ptr %2, align 8
  br label %13

10:                                               ; preds = %1
  %11 = load i64, ptr %3, align 8, !tbaa !7
  %12 = call i64 @RHASH_ST_SIZE(i64 noundef %11)
  store i64 %12, ptr %2, align 8
  br label %13

13:                                               ; preds = %10, %6
  %14 = load i64, ptr %2, align 8
  ret i64 %14
}

; Function Attrs: nounwind sspstrong uwtable
define internal i64 @rb_hash_invert(i64 noundef %0) #0 {
  %2 = alloca i64, align 8
  %3 = alloca i64, align 8
  store i64 %0, ptr %2, align 8, !tbaa !7
  call void @llvm.lifetime.start.p0(i64 8, ptr %3) #28
  %4 = load i64, ptr %2, align 8, !tbaa !7
  %5 = call i64 @RHASH_SIZE(i64 noundef %4)
  %6 = call i64 @rb_hash_new_with_size(i64 noundef %5)
  store i64 %6, ptr %3, align 8, !tbaa !7
  %7 = load i64, ptr %2, align 8, !tbaa !7
  %8 = load i64, ptr %3, align 8, !tbaa !7
  call void @rb_hash_foreach(i64 noundef %7, ptr noundef @rb_hash_invert_i, i64 noundef %8)
  %9 = load i64, ptr %3, align 8, !tbaa !7
  call void @llvm.lifetime.end.p0(i64 8, ptr %3) #28
  ret i64 %9
}