; Function Attrs: nounwind sspstrong uwtable
define internal i64 @rb_hash_invert(i64 noundef %0) #0 {
  %2 = inttoptr i64 %0 to ptr
  %3 = load i64, ptr %2, align 8, !tbaa !11
  %4 = and i64 %3, 32768
  %.not.i.i = icmp eq i64 %4, 0
  br i1 %.not.i.i, label %5, label %8

5:                                                ; preds = %1
  %6 = lshr i64 %3, 16
  %7 = and i64 %6, 15
  br label %RHASH_SIZE.exit

8:                                                ; preds = %1
  %9 = add i64 %0, 24
  %10 = inttoptr i64 %9 to ptr
  %11 = getelementptr inbounds nuw i8, ptr %10, i64 16
  %12 = load i64, ptr %11, align 8, !tbaa !49
  br label %RHASH_SIZE.exit

RHASH_SIZE.exit:                                  ; preds = %5, %8
  %.0.i = phi i64 [ %7, %5 ], [ %12, %8 ]
  %13 = icmp ugt i64 %.0.i, 8
  %14 = load i64, ptr @rb_cHash, align 8, !tbaa !7
  %15 = select i1 %13, i64 80, i64 160
  %16 = tail call align 8 ptr @llvm.threadlocal.address.p0(ptr align 8 @ruby_current_ec)
  %17 = load ptr, ptr %16, align 8, !tbaa !24
  %18 = tail call i64 @rb_wb_protected_newobj_of(ptr noundef %17, i64 noundef %14, i64 noundef 8, i64 noundef %15) #28
  %19 = inttoptr i64 %18 to ptr
  %20 = getelementptr inbounds nuw i8, ptr %19, i64 16
  store i64 4, ptr %20, align 8, !tbaa !7
  br i1 %13, label %21, label %rb_hash_new_with_size.exit

21:                                               ; preds = %RHASH_SIZE.exit
  %22 = add i64 %18, 24
  %23 = inttoptr i64 %22 to ptr
  %24 = tail call ptr @rb_st_init_existing_table_with_size(ptr noundef nonnull %23, ptr noundef nonnull @objhash, i64 noundef %.0.i) #28
  %25 = load i64, ptr %19, align 8, !tbaa !11
  %26 = or i64 %25, 32768
  store i64 %26, ptr %19, align 8, !tbaa !11
  br label %rb_hash_new_with_size.exit

rb_hash_new_with_size.exit:                       ; preds = %RHASH_SIZE.exit, %21
  tail call void @rb_hash_foreach(i64 noundef %0, ptr noundef @rb_hash_invert_i, i64 noundef %18)
  ret i64 %18
}